; Function Attrs: mustprogress uwtable
define { ptr, i64 } @_ZNK7rocksdb17BaseDeltaIterator9timestampEv(ptr noundef nonnull readonly align 8 captures(none) dereferenceable(200) %0) unnamed_addr #4 align 2 {
  %2 = getelementptr inbounds nuw i8, ptr %0, i64 41
  %3 = load i8, ptr %2, align 1, !tbaa !76, !range !91, !noundef !92
  %4 = trunc nuw i8 %3 to i1
  br i1 %4, label %5, label %14

5:                                                ; preds = %1
  %6 = getelementptr inbounds nuw i8, ptr %0, i64 72
  %7 = load ptr, ptr %6, align 8, !tbaa !99
  %8 = load ptr, ptr %7, align 8, !tbaa !18
  %9 = getelementptr inbounds nuw i8, ptr %8, i64 136
  %10 = load ptr, ptr %9, align 8
  %11 = tail call { ptr, i64 } %10(ptr noundef nonnull align 8 dereferenceable(40) %7)
  %12 = extractvalue { ptr, i64 } %11, 0
  %13 = extractvalue { ptr, i64 } %11, 1
  br label %14

14:                                               ; preds = %1, %5
  %.sroa.3.0 = phi i64 [ %13, %5 ], [ 0, %1 ]
  %.sroa.0.0 = phi ptr [ %12, %5 ], [ @.str, %1 ]
  %.fca.0.insert = insertvalue { ptr, i64 } poison, ptr %.sroa.0.0, 0
  %.fca.1.insert = insertvalue { ptr, i64 } %.fca.0.insert, i64 %.sroa.3.0, 1
  ret { ptr, i64 } %.fca.1.insert
}